target datalayout = "e-m:e-p270:32:32-p271:32:32-p272:64:64-i64:64-i128:128-f80:128-n8:16:32:64-S128"
target triple = "x86_64-pc-linux-gnu"

%struct.Node = type { i32 }
%struct.Var = type { %struct.Expr, i32, i16, i32, i32, i32, ptr, i32, i32, i32, i16, i32 }
%struct.Expr = type { i32 }
%struct.TargetEntry = type { %struct.Expr, ptr, i16, ptr, i32, i32, i16, i8 }

; Function Attrs: inlinehint nounwind uwtable
define internal ptr @newNode(i64 noundef %0, i32 noundef %1) #2 {
  %3 = alloca i64, align 8
  %4 = alloca i32, align 4
  %5 = alloca ptr, align 8
  store i64 %0, ptr %3, align 8
  store i32 %1, ptr %4, align 4
  call void @llvm.lifetime.start.p0(i64 8, ptr %5) #6
  %6 = load i64, ptr %3, align 8
  %7 = call ptr @palloc0(i64 noundef %6)
  store ptr %7, ptr %5, align 8
  %8 = load i32, ptr %4, align 4
  %9 = load ptr, ptr %5, align 8
  %10 = getelementptr inbounds nuw %struct.Node, ptr %9, i32 0, i32 0
  store i32 %8, ptr %10, align 4
  %11 = load ptr, ptr %5, align 8
  call void @llvm.lifetime.end.p0(i64 8, ptr %5) #6
  ret ptr %11
}

; Function Attrs: nounwind uwtable
define dso_local ptr @makeVar(i32 noundef %0, i16 noundef signext %1, i32 noundef %2, i32 noundef %3, i32 noundef %4, i32 noundef %5) #0 {
  %7 = alloca i32, align 4
  %8 = alloca i16, align 2
  %9 = alloca i32, align 4
  %10 = alloca i32, align 4
  %11 = alloca i32, align 4
  %12 = alloca i32, align 4
  %13 = alloca ptr, align 8
  store i32 %0, ptr %7, align 4
  store i16 %1, ptr %8, align 2
  store i32 %2, ptr %9, align 4
  store i32 %3, ptr %10, align 4
  store i32 %4, ptr %11, align 4
  store i32 %5, ptr %12, align 4
  call void @llvm.lifetime.start.p0(i64 8, ptr %13) #6
  %14 = call ptr @newNode(i64 noundef 56, i32 noundef 6)
  store ptr %14, ptr %13, align 8
  %15 = load i32, ptr %7, align 4
  %16 = load ptr, ptr %13, align 8
  %17 = getelementptr inbounds nuw %struct.Var, ptr %16, i32 0, i32 1
  store i32 %15, ptr %17, align 4
  %18 = load i16, ptr %8, align 2
  %19 = load ptr, ptr %13, align 8
  %20 = getelementptr inbounds nuw %struct.Var, ptr %19, i32 0, i32 2
  store i16 %18, ptr %20, align 8
  %21 = load i32, ptr %9, align 4
  %22 = load ptr, ptr %13, align 8
  %23 = getelementptr inbounds nuw %struct.Var, ptr %22, i32 0, i32 3
  store i32 %21, ptr %23, align 4
  %24 = load i32, ptr %10, align 4
  %25 = load ptr, ptr %13, align 8
  %26 = getelementptr inbounds nuw %struct.Var, ptr %25, i32 0, i32 4
  store i32 %24, ptr %26, align 8
  %27 = load i32, ptr %11, align 4
  %28 = load ptr, ptr %13, align 8
  %29 = getelementptr inbounds nuw %struct.Var, ptr %28, i32 0, i32 5
  store i32 %27, ptr %29, align 4
  %30 = load i32, ptr %12, align 4
  %31 = load ptr, ptr %13, align 8
  %32 = getelementptr inbounds nuw %struct.Var, ptr %31, i32 0, i32 7
  store i32 %30, ptr %32, align 8
  %33 = load ptr, ptr %13, align 8
  %34 = getelementptr inbounds nuw %struct.Var, ptr %33, i32 0, i32 8
  store i32 0, ptr %34, align 4
  %35 = load ptr, ptr %13, align 8
  %36 = getelementptr inbounds nuw %struct.Var, ptr %35, i32 0, i32 6
  store ptr null, ptr %36, align 8
  %37 = load i32, ptr %7, align 4
  %38 = load ptr, ptr %13, align 8
  %39 = getelementptr inbounds nuw %struct.Var, ptr %38, i32 0, i32 9
  store i32 %37, ptr %39, align 8
  %40 = load i16, ptr %8, align 2
  %41 = load ptr, ptr %13, align 8
  %42 = getelementptr inbounds nuw %struct.Var, ptr %41, i32 0, i32 10
  store i16 %40, ptr %42, align 4
  %43 = load ptr, ptr %13, align 8
  %44 = getelementptr inbounds nuw %struct.Var, ptr %43, i32 0, i32 11
  store i32 -1, ptr %44, align 8
  %45 = load ptr, ptr %13, align 8
  call void @llvm.lifetime.end.p0(i64 8, ptr %13) #6
  ret ptr %45
}

; Function Attrs: nounwind uwtable
define dso_local ptr @makeVarFromTargetEntry(i32 noundef %0, ptr noundef %1) #0 {
  %3 = alloca i32, align 4
  %4 = alloca ptr, align 8
  store i32 %0, ptr %3, align 4
  store ptr %1, ptr %4, align 8
  %5 = load i32, ptr %3, align 4
  %6 = load ptr, ptr %4, align 8
  %7 = getelementptr inbounds nuw %struct.TargetEntry, ptr %6, i32 0, i32 2
  %8 = load i16, ptr %7, align 8
  %9 = load ptr, ptr %4, align 8
  %10 = getelementptr inbounds nuw %struct.TargetEntry, ptr %9, i32 0, i32 1
  %11 = load ptr, ptr %10, align 8
  %12 = call i32 @exprType(ptr noundef %11)
  %13 = load ptr, ptr %4, align 8
  %14 = getelementptr inbounds nuw %struct.TargetEntry, ptr %13, i32 0, i32 1
  %15 = load ptr, ptr %14, align 8
  %16 = call i32 @exprTypmod(ptr noundef %15)
  %17 = load ptr, ptr %4, align 8
  %18 = getelementptr inbounds nuw %struct.TargetEntry, ptr %17, i32 0, i32 1
  %19 = load ptr, ptr %18, align 8
  %20 = call i32 @exprCollation(ptr noundef %19)
  %21 = call ptr @makeVar(i32 noundef %5, i16 noundef signext %8, i32 noundef %12, i32 noundef %16, i32 noundef %20, i32 noundef 0)
  ret ptr %21
}