; Function Attrs: nounwind uwtable
define dso_local noundef ptr @makeVarFromTargetEntry(i32 noundef %0, ptr noundef readonly captures(none) %1) local_unnamed_addr #0 {
  %3 = getelementptr inbounds nuw i8, ptr %1, i64 16
  %4 = load i16, ptr %3, align 8
  %5 = getelementptr inbounds nuw i8, ptr %1, i64 8
  %6 = load ptr, ptr %5, align 8
  %7 = tail call i32 @exprType(ptr noundef %6) #7
  %8 = load ptr, ptr %5, align 8
  %9 = tail call i32 @exprTypmod(ptr noundef %8) #7
  %10 = load ptr, ptr %5, align 8
  %11 = tail call i32 @exprCollation(ptr noundef %10) #7
  %12 = tail call noundef ptr @palloc0(i64 noundef 56) #7
  store i32 6, ptr %12, align 4
  %13 = getelementptr inbounds nuw i8, ptr %12, i64 4
  store i32 %0, ptr %13, align 4
  %14 = getelementptr inbounds nuw i8, ptr %12, i64 8
  store i16 %4, ptr %14, align 8
  %15 = getelementptr inbounds nuw i8, ptr %12, i64 12
  store i32 %7, ptr %15, align 4
  %16 = getelementptr inbounds nuw i8, ptr %12, i64 16
  store i32 %9, ptr %16, align 8
  %17 = getelementptr inbounds nuw i8, ptr %12, i64 20
  store i32 %11, ptr %17, align 4
  %18 = getelementptr inbounds nuw i8, ptr %12, i64 24
  %19 = getelementptr inbounds nuw i8, ptr %12, i64 40
  tail call void @llvm.memset.p0.i64(ptr noundef nonnull align 8 dereferenceable(16) %18, i8 0, i64 16, i1 false)
  store i32 %0, ptr %19, align 8
  %20 = getelementptr inbounds nuw i8, ptr %12, i64 44
  store i16 %4, ptr %20, align 4
  %21 = getelementptr inbounds nuw i8, ptr %12, i64 48
  store i32 -1, ptr %21, align 8
  ret ptr %12
}